
rev1:     file format elf64-x86-64


Disassembly of section .init:

00000000004004d8 <_init>:
  4004d8:	48 83 ec 08          	sub    $0x8,%rsp
  4004dc:	48 8b 05 e5 05 20 00 	mov    0x2005e5(%rip),%rax        # 600ac8 <_DYNAMIC+0x200>
  4004e3:	48 85 c0             	test   %rax,%rax
  4004e6:	74 05                	je     4004ed <_init+0x15>
  4004e8:	e8 33 00 00 00       	callq  400520 <__gmon_start__@plt>
  4004ed:	48 83 c4 08          	add    $0x8,%rsp
  4004f1:	c3                   	retq   

Disassembly of section .plt:

0000000000400500 <printf@plt-0x10>:
  400500:	ff 35 d2 05 20 00    	pushq  0x2005d2(%rip)        # 600ad8 <_GLOBAL_OFFSET_TABLE_+0x8>
  400506:	ff 25 d4 05 20 00    	jmpq   *0x2005d4(%rip)        # 600ae0 <_GLOBAL_OFFSET_TABLE_+0x10>
  40050c:	0f 1f 40 00          	nopl   0x0(%rax)

0000000000400510 <printf@plt>:
  400510:	ff 25 d2 05 20 00    	jmpq   *0x2005d2(%rip)        # 600ae8 <_GLOBAL_OFFSET_TABLE_+0x18>
  400516:	68 00 00 00 00       	pushq  $0x0
  40051b:	e9 e0 ff ff ff       	jmpq   400500 <_init+0x28>

0000000000400520 <__gmon_start__@plt>:
  400520:	ff 25 ca 05 20 00    	jmpq   *0x2005ca(%rip)        # 600af0 <_GLOBAL_OFFSET_TABLE_+0x20>
  400526:	68 01 00 00 00       	pushq  $0x1
  40052b:	e9 d0 ff ff ff       	jmpq   400500 <_init+0x28>

0000000000400530 <puts@plt>:
  400530:	ff 25 c2 05 20 00    	jmpq   *0x2005c2(%rip)        # 600af8 <_GLOBAL_OFFSET_TABLE_+0x28>
  400536:	68 02 00 00 00       	pushq  $0x2
  40053b:	e9 c0 ff ff ff       	jmpq   400500 <_init+0x28>

0000000000400540 <__libc_start_main@plt>:
  400540:	ff 25 ba 05 20 00    	jmpq   *0x2005ba(%rip)        # 600b00 <_GLOBAL_OFFSET_TABLE_+0x30>
  400546:	68 03 00 00 00       	pushq  $0x3
  40054b:	e9 b0 ff ff ff       	jmpq   400500 <_init+0x28>

0000000000400550 <scanf@plt>:
  400550:	ff 25 b2 05 20 00    	jmpq   *0x2005b2(%rip)        # 600b08 <_GLOBAL_OFFSET_TABLE_+0x38>
  400556:	68 04 00 00 00       	pushq  $0x4
  40055b:	e9 a0 ff ff ff       	jmpq   400500 <_init+0x28>

Disassembly of section .text:

0000000000400560 <_start>:
  400560:	31 ed                	xor    %ebp,%ebp
  400562:	49 89 d1             	mov    %rdx,%r9
  400565:	5e                   	pop    %rsi
  400566:	48 89 e2             	mov    %rsp,%rdx
  400569:	48 83 e4 f0          	and    $0xfffffffffffffff0,%rsp
  40056d:	50                   	push   %rax
  40056e:	54                   	push   %rsp
  40056f:	49 c7 c0 30 07 40 00 	mov    $0x400730,%r8
  400576:	48 c7 c1 c0 06 40 00 	mov    $0x4006c0,%rcx
  40057d:	48 c7 c7 56 06 40 00 	mov    $0x400656,%rdi
  400584:	e8 b7 ff ff ff       	callq  400540 <__libc_start_main@plt>
  400589:	f4                   	hlt    
  40058a:	66 0f 1f 44 00 00    	nopw   0x0(%rax,%rax,1)

0000000000400590 <deregister_tm_clones>:
  400590:	b8 27 0b 60 00       	mov    $0x600b27,%eax
  400595:	55                   	push   %rbp
  400596:	48 2d 20 0b 60 00    	sub    $0x600b20,%rax
  40059c:	48 83 f8 0e          	cmp    $0xe,%rax
  4005a0:	48 89 e5             	mov    %rsp,%rbp
  4005a3:	76 1b                	jbe    4005c0 <deregister_tm_clones+0x30>
  4005a5:	b8 00 00 00 00       	mov    $0x0,%eax
  4005aa:	48 85 c0             	test   %rax,%rax
  4005ad:	74 11                	je     4005c0 <deregister_tm_clones+0x30>
  4005af:	5d                   	pop    %rbp
  4005b0:	bf 20 0b 60 00       	mov    $0x600b20,%edi
  4005b5:	ff e0                	jmpq   *%rax
  4005b7:	66 0f 1f 84 00 00 00 	nopw   0x0(%rax,%rax,1)
  4005be:	00 00 
  4005c0:	5d                   	pop    %rbp
  4005c1:	c3                   	retq   
  4005c2:	66 66 66 66 66 2e 0f 	data32 data32 data32 data32 nopw %cs:0x0(%rax,%rax,1)
  4005c9:	1f 84 00 00 00 00 00 

00000000004005d0 <register_tm_clones>:
  4005d0:	be 20 0b 60 00       	mov    $0x600b20,%esi
  4005d5:	55                   	push   %rbp
  4005d6:	48 81 ee 20 0b 60 00 	sub    $0x600b20,%rsi
  4005dd:	48 c1 fe 03          	sar    $0x3,%rsi
  4005e1:	48 89 e5             	mov    %rsp,%rbp
  4005e4:	48 89 f0             	mov    %rsi,%rax
  4005e7:	48 c1 e8 3f          	shr    $0x3f,%rax
  4005eb:	48 01 c6             	add    %rax,%rsi
  4005ee:	48 d1 fe             	sar    %rsi
  4005f1:	74 15                	je     400608 <register_tm_clones+0x38>
  4005f3:	b8 00 00 00 00       	mov    $0x0,%eax
  4005f8:	48 85 c0             	test   %rax,%rax
  4005fb:	74 0b                	je     400608 <register_tm_clones+0x38>
  4005fd:	5d                   	pop    %rbp
  4005fe:	bf 20 0b 60 00       	mov    $0x600b20,%edi
  400603:	ff e0                	jmpq   *%rax
  400605:	0f 1f 00             	nopl   (%rax)
  400608:	5d                   	pop    %rbp
  400609:	c3                   	retq   
  40060a:	66 0f 1f 44 00 00    	nopw   0x0(%rax,%rax,1)

0000000000400610 <__do_global_dtors_aux>:
  400610:	80 3d 09 05 20 00 00 	cmpb   $0x0,0x200509(%rip)        # 600b20 <__TMC_END__>
  400617:	75 11                	jne    40062a <__do_global_dtors_aux+0x1a>
  400619:	55                   	push   %rbp
  40061a:	48 89 e5             	mov    %rsp,%rbp
  40061d:	e8 6e ff ff ff       	callq  400590 <deregister_tm_clones>
  400622:	5d                   	pop    %rbp
  400623:	c6 05 f6 04 20 00 01 	movb   $0x1,0x2004f6(%rip)        # 600b20 <__TMC_END__>
  40062a:	f3 c3                	repz retq 
  40062c:	0f 1f 40 00          	nopl   0x0(%rax)

0000000000400630 <frame_dummy>:
  400630:	bf c0 08 60 00       	mov    $0x6008c0,%edi
  400635:	48 83 3f 00          	cmpq   $0x0,(%rdi)
  400639:	75 05                	jne    400640 <frame_dummy+0x10>
  40063b:	eb 93                	jmp    4005d0 <register_tm_clones>
  40063d:	0f 1f 00             	nopl   (%rax)
  400640:	b8 00 00 00 00       	mov    $0x0,%eax
  400645:	48 85 c0             	test   %rax,%rax
  400648:	74 f1                	je     40063b <frame_dummy+0xb>
  40064a:	55                   	push   %rbp
  40064b:	48 89 e5             	mov    %rsp,%rbp
  40064e:	ff d0                	callq  *%rax
  400650:	5d                   	pop    %rbp
  400651:	e9 7a ff ff ff       	jmpq   4005d0 <register_tm_clones>

0000000000400656 <main>:
  400656:	55                   	push   %rbp
  400657:	48 89 e5             	mov    %rsp,%rbp
  40065a:	48 83 ec 10          	sub    $0x10,%rsp
  40065e:	c7 45 fc 00 00 00 00 	movl   $0x0,-0x4(%rbp)
  400665:	48 b8 68 34 78 30 72 	mov    $0x2121217230783468,%rax
  40066c:	21 21 21 
  40066f:	48 89 45 f0          	mov    %rax,-0x10(%rbp)

  400673:	c6 45 f8 00          	movb   $0x0,-0x8(%rbp)
  400677:	bf 44 07 40 00       	mov    $0x400744,%edi
  40067c:	e8 af fe ff ff       	callq  400530 <puts@plt>
  400681:	48 8d 45 fc          	lea    -0x4(%rbp),%rax
  400685:	48 89 c6             	mov    %rax,%rsi
  400688:	bf 60 07 40 00       	mov    $0x400760,%edi
  40068d:	b8 00 00 00 00       	mov    $0x0,%eax
  400692:	e8 b9 fe ff ff       	callq  400550 <scanf@plt>
  400697:	8b 45 fc             	mov    -0x4(%rbp),%eax
  40069a:	3d 74 5b 00 00       	cmp    $0x5b74,%eax
  40069f:	75 16                	jne    4006b7 <main+0x61>
  4006a1:	48 8d 45 f0          	lea    -0x10(%rbp),%rax
  4006a5:	48 89 c6             	mov    %rax,%rsi
  4006a8:	bf 63 07 40 00       	mov    $0x400763,%edi
  4006ad:	b8 00 00 00 00       	mov    $0x0,%eax
  4006b2:	e8 59 fe ff ff       	callq  400510 <printf@plt>
  4006b7:	b8 00 00 00 00       	mov    $0x0,%eax
  4006bc:	c9                   	leaveq 
  4006bd:	c3                   	retq   
  4006be:	66 90                	xchg   %ax,%ax

00000000004006c0 <__libc_csu_init>:
  4006c0:	41 57                	push   %r15
  4006c2:	41 89 ff             	mov    %edi,%r15d
  4006c5:	41 56                	push   %r14
  4006c7:	49 89 f6             	mov    %rsi,%r14
  4006ca:	41 55                	push   %r13
  4006cc:	49 89 d5             	mov    %rdx,%r13
  4006cf:	41 54                	push   %r12
  4006d1:	4c 8d 25 d8 01 20 00 	lea    0x2001d8(%rip),%r12        # 6008b0 <__frame_dummy_init_array_entry>
  4006d8:	55                   	push   %rbp
  4006d9:	48 8d 2d d8 01 20 00 	lea    0x2001d8(%rip),%rbp        # 6008b8 <__init_array_end>
  4006e0:	53                   	push   %rbx
  4006e1:	4c 29 e5             	sub    %r12,%rbp
  4006e4:	31 db                	xor    %ebx,%ebx
  4006e6:	48 c1 fd 03          	sar    $0x3,%rbp
  4006ea:	48 83 ec 08          	sub    $0x8,%rsp
  4006ee:	e8 e5 fd ff ff       	callq  4004d8 <_init>
  4006f3:	48 85 ed             	test   %rbp,%rbp
  4006f6:	74 1e                	je     400716 <__libc_csu_init+0x56>
  4006f8:	0f 1f 84 00 00 00 00 	nopl   0x0(%rax,%rax,1)
  4006ff:	00 
  400700:	4c 89 ea             	mov    %r13,%rdx
  400703:	4c 89 f6             	mov    %r14,%rsi
  400706:	44 89 ff             	mov    %r15d,%edi
  400709:	41 ff 14 dc          	callq  *(%r12,%rbx,8)
  40070d:	48 83 c3 01          	add    $0x1,%rbx
  400711:	48 39 eb             	cmp    %rbp,%rbx
  400714:	75 ea                	jne    400700 <__libc_csu_init+0x40>
  400716:	48 83 c4 08          	add    $0x8,%rsp
  40071a:	5b                   	pop    %rbx
  40071b:	5d                   	pop    %rbp
  40071c:	41 5c                	pop    %r12
  40071e:	41 5d                	pop    %r13
  400720:	41 5e                	pop    %r14
  400722:	41 5f                	pop    %r15
  400724:	c3                   	retq   
  400725:	66 66 2e 0f 1f 84 00 	data32 nopw %cs:0x0(%rax,%rax,1)
  40072c:	00 00 00 00 

0000000000400730 <__libc_csu_fini>:
  400730:	f3 c3                	repz retq 

Disassembly of section .fini:

0000000000400734 <_fini>:
  400734:	48 83 ec 08          	sub    $0x8,%rsp
  400738:	48 83 c4 08          	add    $0x8,%rsp
  40073c:	c3                   	retq   
